target datalayout = "e-m:e-p270:32:32-p271:32:32-p272:64:64-i64:64-i128:128-f80:128-n8:16:32:64-S128"
target triple = "x86_64-pc-linux-gnu"

%struct.ARKodeMemRec = type { ptr, double, ptr, i32, i32, double, double, ptr, i32, double, ptr, i32, i32, ptr, ptr, i32, ptr, ptr, i32, ptr, ptr, ptr, ptr, ptr, ptr, ptr, ptr, ptr, ptr, ptr, ptr, ptr, ptr, ptr, i32, ptr, ptr, i32, ptr, i32, ptr, ptr, ptr, ptr, ptr, ptr, ptr, ptr, ptr, ptr, ptr, ptr, ptr, ptr, ptr, ptr, ptr, ptr, ptr, ptr, ptr, ptr, ptr, ptr, ptr, ptr, i32, ptr, ptr, ptr, ptr, ptr, ptr, ptr, i32, ptr, ptr, ptr, i32, ptr, ptr, ptr, ptr, ptr, ptr, ptr, i32, i32, i32, i32, double, double, double, double, double, double, double, double, double, double, i32, ptr, i64, i32, i32, i32, i32, i64, i64, i32, i64, i64, i64, i64, i64, i64, i64, double, double, double, double, double, i32, double, double, i32, i32, i32, i32, i32, i32, i32, i32, ptr, i32, ptr, ptr, ptr, ptr, i32, i32, i32 }
%struct.ARKodeMRIStepMemRec = type { ptr, ptr, i32, i32, i32, i32, i32, ptr, ptr, i32, i32, i32, ptr, i32, i32, i32, i32, i32, ptr, ptr, ptr, ptr, ptr, ptr, ptr, i32, ptr, i32, ptr, double, double, double, double, i32, double, double, double, double, double, double, i32, i64, i32, i32, i32, ptr, ptr, ptr, ptr, ptr, ptr, ptr, ptr, ptr, double, double, double, i64, i64, i64, i64, i64, i64, i32, i32, i32, double, double, ptr, i32, ptr, ptr }

@.str = private unnamed_addr constant [123 x i8] c"generated/home/dtcxzyw/WorkSpace/Projects/compilers/llvm-opt-benchmark/bench/sundials/sundials/src/arkode/arkode_mristep.c\00", align 1
@.str.1 = private unnamed_addr constant [49 x i8] c"Must specify at least one of fe, fi (both NULL).\00", align 1
@.str.2 = private unnamed_addr constant [19 x i8] c"y0 = NULL illegal.\00", align 1
@.str.6 = private unnamed_addr constant [27 x i8] c"arkode_mem = NULL illegal.\00", align 1
@.str.9 = private unnamed_addr constant [37 x i8] c"Error creating default Newton solver\00", align 1
@.str.10 = private unnamed_addr constant [38 x i8] c"Error attaching default Newton solver\00", align 1
@__func__.MRIStepReInit = private unnamed_addr constant [14 x i8] c"MRIStepReInit\00", align 1
@.str.14 = private unnamed_addr constant [35 x i8] c"Attempt to call before ARKodeInit.\00", align 1
@.str.15 = private unnamed_addr constant [50 x i8] c"Unable to reinitialize main ARKODE infrastructure\00", align 1
@.str.75 = private unnamed_addr constant [33 x i8] c"Time step module memory is NULL.\00", align 1

; Function Attrs: nounwind uwtable
define i32 @mriStep_AccessARKODEStepMem(ptr noundef %0, ptr noundef %1, ptr noundef %2, ptr noundef %3) #0 {
  %5 = alloca i32, align 4
  %6 = alloca ptr, align 8
  %7 = alloca ptr, align 8
  %8 = alloca ptr, align 8
  %9 = alloca ptr, align 8
  store ptr %0, ptr %6, align 8, !tbaa !3
  store ptr %1, ptr %7, align 8, !tbaa !221
  store ptr %2, ptr %8, align 8, !tbaa !223
  store ptr %3, ptr %9, align 8, !tbaa !225
  %10 = load ptr, ptr %6, align 8, !tbaa !3
  %11 = icmp eq ptr %10, null
  br i1 %11, label %12, label %14

12:                                               ; preds = %4
  %13 = load ptr, ptr %7, align 8, !tbaa !221
  call void (ptr, i32, i32, ptr, ptr, ptr, ...) @arkProcessError(ptr noundef null, i32 noundef -21, i32 noundef 3068, ptr noundef %13, ptr noundef @.str, ptr noundef @.str.6)
  store i32 -21, ptr %5, align 4
  br label %32

14:                                               ; preds = %4
  %15 = load ptr, ptr %6, align 8, !tbaa !3
  %16 = load ptr, ptr %8, align 8, !tbaa !223
  store ptr %15, ptr %16, align 8, !tbaa !17
  %17 = load ptr, ptr %8, align 8, !tbaa !223
  %18 = load ptr, ptr %17, align 8, !tbaa !17
  %19 = getelementptr inbounds nuw %struct.ARKodeMemRec, ptr %18, i32 0, i32 19
  %20 = load ptr, ptr %19, align 8, !tbaa !70
  %21 = icmp eq ptr %20, null
  br i1 %21, label %22, label %26

22:                                               ; preds = %14
  %23 = load ptr, ptr %8, align 8, !tbaa !223
  %24 = load ptr, ptr %23, align 8, !tbaa !17
  %25 = load ptr, ptr %7, align 8, !tbaa !221
  call void (ptr, i32, i32, ptr, ptr, ptr, ...) @arkProcessError(ptr noundef %24, i32 noundef -21, i32 noundef 3077, ptr noundef %25, ptr noundef @.str, ptr noundef @.str.75)
  store i32 -21, ptr %5, align 4
  br label %32

26:                                               ; preds = %14
  %27 = load ptr, ptr %8, align 8, !tbaa !223
  %28 = load ptr, ptr %27, align 8, !tbaa !17
  %29 = getelementptr inbounds nuw %struct.ARKodeMemRec, ptr %28, i32 0, i32 19
  %30 = load ptr, ptr %29, align 8, !tbaa !70
  %31 = load ptr, ptr %9, align 8, !tbaa !225
  store ptr %30, ptr %31, align 8, !tbaa !19
  store i32 0, ptr %5, align 4
  br label %32

32:                                               ; preds = %26, %22, %12
  %33 = load i32, ptr %5, align 4
  ret i32 %33
}

; Function Attrs: nounwind uwtable
define i32 @MRIStepReInit(ptr noundef %0, ptr noundef %1, ptr noundef %2, double noundef %3, ptr noundef %4) #0 {
  %6 = alloca i32, align 4
  %7 = alloca ptr, align 8
  %8 = alloca ptr, align 8
  %9 = alloca ptr, align 8
  %10 = alloca double, align 8
  %11 = alloca ptr, align 8
  %12 = alloca ptr, align 8
  %13 = alloca ptr, align 8
  %14 = alloca ptr, align 8
  %15 = alloca i32, align 4
  %16 = alloca i32, align 4
  store ptr %0, ptr %7, align 8, !tbaa !3
  store ptr %1, ptr %8, align 8, !tbaa !3
  store ptr %2, ptr %9, align 8, !tbaa !3
  store double %3, ptr %10, align 8, !tbaa !7
  store ptr %4, ptr %11, align 8, !tbaa !9
  call void @llvm.lifetime.start.p0(i64 8, ptr %12) #8
  call void @llvm.lifetime.start.p0(i64 8, ptr %13) #8
  call void @llvm.lifetime.start.p0(i64 8, ptr %14) #8
  call void @llvm.lifetime.start.p0(i64 4, ptr %15) #8
  %17 = load ptr, ptr %7, align 8, !tbaa !3
  %18 = call i32 @mriStep_AccessARKODEStepMem(ptr noundef %17, ptr noundef @__func__.MRIStepReInit, ptr noundef %12, ptr noundef %13)
  store i32 %18, ptr %15, align 4, !tbaa !15
  %19 = load i32, ptr %15, align 4, !tbaa !15
  %20 = icmp ne i32 %19, 0
  br i1 %20, label %21, label %23

21:                                               ; preds = %5
  %22 = load i32, ptr %15, align 4, !tbaa !15
  store i32 %22, ptr %6, align 4
  store i32 1, ptr %16, align 4
  br label %120

23:                                               ; preds = %5
  %24 = load ptr, ptr %12, align 8, !tbaa !17
  %25 = getelementptr inbounds nuw %struct.ARKodeMemRec, ptr %24, i32 0, i32 127
  %26 = load i32, ptr %25, align 8, !tbaa !220
  %27 = icmp eq i32 %26, 0
  br i1 %27, label %28, label %30

28:                                               ; preds = %23
  %29 = load ptr, ptr %12, align 8, !tbaa !17
  call void (ptr, i32, i32, ptr, ptr, ptr, ...) @arkProcessError(ptr noundef %29, i32 noundef -23, i32 noundef 316, ptr noundef @__func__.MRIStepReInit, ptr noundef @.str, ptr noundef @.str.14)
  store i32 -23, ptr %6, align 4
  store i32 1, ptr %16, align 4
  br label %120

30:                                               ; preds = %23
  %31 = load ptr, ptr %8, align 8, !tbaa !3
  %32 = icmp eq ptr %31, null
  br i1 %32, label %33, label %38

33:                                               ; preds = %30
  %34 = load ptr, ptr %9, align 8, !tbaa !3
  %35 = icmp eq ptr %34, null
  br i1 %35, label %36, label %38

36:                                               ; preds = %33
  %37 = load ptr, ptr %12, align 8, !tbaa !17
  call void (ptr, i32, i32, ptr, ptr, ptr, ...) @arkProcessError(ptr noundef %37, i32 noundef -22, i32 noundef 324, ptr noundef @__func__.MRIStepReInit, ptr noundef @.str, ptr noundef @.str.1)
  store i32 -22, ptr %6, align 4
  store i32 1, ptr %16, align 4
  br label %120

38:                                               ; preds = %33, %30
  %39 = load ptr, ptr %11, align 8, !tbaa !9
  %40 = icmp eq ptr %39, null
  br i1 %40, label %41, label %43

41:                                               ; preds = %38
  %42 = load ptr, ptr %12, align 8, !tbaa !17
  call void (ptr, i32, i32, ptr, ptr, ptr, ...) @arkProcessError(ptr noundef %42, i32 noundef -22, i32 noundef 332, ptr noundef @__func__.MRIStepReInit, ptr noundef @.str, ptr noundef @.str.2)
  store i32 -22, ptr %6, align 4
  store i32 1, ptr %16, align 4
  br label %120

43:                                               ; preds = %38
  %44 = load ptr, ptr %8, align 8, !tbaa !3
  %45 = icmp eq ptr %44, null
  %46 = select i1 %45, i32 0, i32 1
  %47 = load ptr, ptr %13, align 8, !tbaa !19
  %48 = getelementptr inbounds nuw %struct.ARKodeMRIStepMemRec, ptr %47, i32 0, i32 4
  store i32 %46, ptr %48, align 8, !tbaa !81
  %49 = load ptr, ptr %9, align 8, !tbaa !3
  %50 = icmp eq ptr %49, null
  %51 = select i1 %50, i32 0, i32 1
  %52 = load ptr, ptr %13, align 8, !tbaa !19
  %53 = getelementptr inbounds nuw %struct.ARKodeMRIStepMemRec, ptr %52, i32 0, i32 5
  store i32 %51, ptr %53, align 4, !tbaa !82
  %54 = load ptr, ptr %13, align 8, !tbaa !19
  %55 = getelementptr inbounds nuw %struct.ARKodeMRIStepMemRec, ptr %54, i32 0, i32 5
  %56 = load i32, ptr %55, align 4, !tbaa !82
  %57 = icmp ne i32 %56, 0
  br i1 %57, label %58, label %84

58:                                               ; preds = %43
  %59 = load ptr, ptr %13, align 8, !tbaa !19
  %60 = getelementptr inbounds nuw %struct.ARKodeMRIStepMemRec, ptr %59, i32 0, i32 26
  %61 = load ptr, ptr %60, align 8, !tbaa !85
  %62 = icmp ne ptr %61, null
  br i1 %62, label %84, label %63

63:                                               ; preds = %58
  %64 = load ptr, ptr %11, align 8, !tbaa !9
  %65 = load ptr, ptr %12, align 8, !tbaa !17
  %66 = getelementptr inbounds nuw %struct.ARKodeMemRec, ptr %65, i32 0, i32 0
  %67 = load ptr, ptr %66, align 8, !tbaa !87
  %68 = call ptr @SUNNonlinSol_Newton(ptr noundef %64, ptr noundef %67)
  store ptr %68, ptr %14, align 8, !tbaa !88
  %69 = load ptr, ptr %14, align 8, !tbaa !88
  %70 = icmp ne ptr %69, null
  br i1 %70, label %73, label %71

71:                                               ; preds = %63
  %72 = load ptr, ptr %12, align 8, !tbaa !17
  call void (ptr, i32, i32, ptr, ptr, ptr, ...) @arkProcessError(ptr noundef %72, i32 noundef -20, i32 noundef 348, ptr noundef @__func__.MRIStepReInit, ptr noundef @.str, ptr noundef @.str.9)
  call void @ARKodeFree(ptr noundef %12)
  store i32 -20, ptr %6, align 4
  store i32 1, ptr %16, align 4
  br label %120

73:                                               ; preds = %63
  %74 = load ptr, ptr %12, align 8, !tbaa !17
  %75 = load ptr, ptr %14, align 8, !tbaa !88
  %76 = call i32 @ARKodeSetNonlinearSolver(ptr noundef %74, ptr noundef %75)
  store i32 %76, ptr %15, align 4, !tbaa !15
  %77 = load i32, ptr %15, align 4, !tbaa !15
  %78 = icmp ne i32 %77, 0
  br i1 %78, label %79, label %81

79:                                               ; preds = %73
  %80 = load ptr, ptr %12, align 8, !tbaa !17
  call void (ptr, i32, i32, ptr, ptr, ptr, ...) @arkProcessError(ptr noundef %80, i32 noundef -20, i32 noundef 356, ptr noundef @__func__.MRIStepReInit, ptr noundef @.str, ptr noundef @.str.10)
  call void @ARKodeFree(ptr noundef %12)
  store i32 -20, ptr %6, align 4
  store i32 1, ptr %16, align 4
  br label %120

81:                                               ; preds = %73
  %82 = load ptr, ptr %13, align 8, !tbaa !19
  %83 = getelementptr inbounds nuw %struct.ARKodeMRIStepMemRec, ptr %82, i32 0, i32 27
  store i32 1, ptr %83, align 8, !tbaa !86
  br label %84

84:                                               ; preds = %81, %58, %43
  %85 = load ptr, ptr %7, align 8, !tbaa !3
  %86 = load double, ptr %10, align 8, !tbaa !7
  %87 = load ptr, ptr %11, align 8, !tbaa !9
  %88 = call i32 @arkInit(ptr noundef %85, double noundef %86, ptr noundef %87, i32 noundef 0)
  store i32 %88, ptr %15, align 4, !tbaa !15
  %89 = load i32, ptr %15, align 4, !tbaa !15
  %90 = icmp ne i32 %89, 0
  br i1 %90, label %91, label %95

91:                                               ; preds = %84
  %92 = load ptr, ptr %12, align 8, !tbaa !17
  %93 = load i32, ptr %15, align 4, !tbaa !15
  call void (ptr, i32, i32, ptr, ptr, ptr, ...) @arkProcessError(ptr noundef %92, i32 noundef %93, i32 noundef 368, ptr noundef @__func__.MRIStepReInit, ptr noundef @.str, ptr noundef @.str.15)
  %94 = load i32, ptr %15, align 4, !tbaa !15
  store i32 %94, ptr %6, align 4
  store i32 1, ptr %16, align 4
  br label %120

95:                                               ; preds = %84
  %96 = load ptr, ptr %8, align 8, !tbaa !3
  %97 = load ptr, ptr %13, align 8, !tbaa !19
  %98 = getelementptr inbounds nuw %struct.ARKodeMRIStepMemRec, ptr %97, i32 0, i32 0
  store ptr %96, ptr %98, align 8, !tbaa !71
  %99 = load ptr, ptr %9, align 8, !tbaa !3
  %100 = load ptr, ptr %13, align 8, !tbaa !19
  %101 = getelementptr inbounds nuw %struct.ARKodeMRIStepMemRec, ptr %100, i32 0, i32 1
  store ptr %99, ptr %101, align 8, !tbaa !78
  %102 = load ptr, ptr %13, align 8, !tbaa !19
  %103 = getelementptr inbounds nuw %struct.ARKodeMRIStepMemRec, ptr %102, i32 0, i32 10
  store i32 0, ptr %103, align 4, !tbaa !79
  %104 = load ptr, ptr %13, align 8, !tbaa !19
  %105 = getelementptr inbounds nuw %struct.ARKodeMRIStepMemRec, ptr %104, i32 0, i32 11
  store i32 0, ptr %105, align 8, !tbaa !80
  %106 = load ptr, ptr %13, align 8, !tbaa !19
  %107 = getelementptr inbounds nuw %struct.ARKodeMRIStepMemRec, ptr %106, i32 0, i32 57
  store i64 0, ptr %107, align 8, !tbaa !95
  %108 = load ptr, ptr %13, align 8, !tbaa !19
  %109 = getelementptr inbounds nuw %struct.ARKodeMRIStepMemRec, ptr %108, i32 0, i32 58
  store i64 0, ptr %109, align 8, !tbaa !96
  %110 = load ptr, ptr %13, align 8, !tbaa !19
  %111 = getelementptr inbounds nuw %struct.ARKodeMRIStepMemRec, ptr %110, i32 0, i32 59
  store i64 0, ptr %111, align 8, !tbaa !97
  %112 = load ptr, ptr %13, align 8, !tbaa !19
  %113 = getelementptr inbounds nuw %struct.ARKodeMRIStepMemRec, ptr %112, i32 0, i32 41
  store i64 0, ptr %113, align 8, !tbaa !98
  %114 = load ptr, ptr %13, align 8, !tbaa !19
  %115 = getelementptr inbounds nuw %struct.ARKodeMRIStepMemRec, ptr %114, i32 0, i32 60
  store i64 0, ptr %115, align 8, !tbaa !99
  %116 = load ptr, ptr %13, align 8, !tbaa !19
  %117 = getelementptr inbounds nuw %struct.ARKodeMRIStepMemRec, ptr %116, i32 0, i32 61
  store i64 0, ptr %117, align 8, !tbaa !100
  %118 = load ptr, ptr %13, align 8, !tbaa !19
  %119 = getelementptr inbounds nuw %struct.ARKodeMRIStepMemRec, ptr %118, i32 0, i32 62
  store i64 0, ptr %119, align 8, !tbaa !101
  store i32 0, ptr %6, align 4
  store i32 1, ptr %16, align 4
  br label %120

120:                                              ; preds = %95, %91, %79, %71, %41, %36, %28, %21
  call void @llvm.lifetime.end.p0(i64 4, ptr %15) #8
  call void @llvm.lifetime.end.p0(i64 8, ptr %14) #8
  call void @llvm.lifetime.end.p0(i64 8, ptr %13) #8
  call void @llvm.lifetime.end.p0(i64 8, ptr %12) #8
  %121 = load i32, ptr %6, align 4
  ret i32 %121
}