; Function Attrs: nounwind uwtable
define i32 @MRIStepReInit(ptr noundef %0, ptr noundef %1, ptr noundef %2, double noundef %3, ptr noundef %4) local_unnamed_addr #0 {
  %6 = alloca ptr, align 8
  call void @llvm.lifetime.start.p0(i64 8, ptr nonnull %6) #14
  %7 = icmp eq ptr %0, null
  br i1 %7, label %8, label %9

8:                                                ; preds = %5
  tail call void (ptr, i32, i32, ptr, ptr, ptr, ...) @arkProcessError(ptr noundef null, i32 noundef -21, i32 noundef 3068, ptr noundef nonnull @__func__.MRIStepReInit, ptr noundef nonnull @.str, ptr noundef nonnull @.str.6) #14
  br label %mriStep_AccessARKODEStepMem.exit.thread

9:                                                ; preds = %5
  store ptr %0, ptr %6, align 8, !tbaa !17
  %10 = getelementptr inbounds nuw i8, ptr %0, i64 136
  %11 = load ptr, ptr %10, align 8, !tbaa !71
  %12 = icmp eq ptr %11, null
  br i1 %12, label %13, label %mriStep_AccessARKODEStepMem.exit

13:                                               ; preds = %9
  tail call void (ptr, i32, i32, ptr, ptr, ptr, ...) @arkProcessError(ptr noundef nonnull %0, i32 noundef -21, i32 noundef 3077, ptr noundef nonnull @__func__.MRIStepReInit, ptr noundef nonnull @.str, ptr noundef nonnull @.str.75) #14
  br label %mriStep_AccessARKODEStepMem.exit.thread

mriStep_AccessARKODEStepMem.exit:                 ; preds = %9
  %14 = getelementptr inbounds nuw i8, ptr %0, i64 960
  %15 = load i32, ptr %14, align 8, !tbaa !214
  %16 = icmp eq i32 %15, 0
  br i1 %16, label %17, label %18

17:                                               ; preds = %mriStep_AccessARKODEStepMem.exit
  tail call void (ptr, i32, i32, ptr, ptr, ptr, ...) @arkProcessError(ptr noundef nonnull %0, i32 noundef -23, i32 noundef 316, ptr noundef nonnull @__func__.MRIStepReInit, ptr noundef nonnull @.str, ptr noundef nonnull @.str.14) #14
  br label %mriStep_AccessARKODEStepMem.exit.thread

18:                                               ; preds = %mriStep_AccessARKODEStepMem.exit
  %19 = icmp eq ptr %1, null
  %20 = icmp eq ptr %2, null
  %or.cond = and i1 %19, %20
  br i1 %or.cond, label %21, label %22

21:                                               ; preds = %18
  tail call void (ptr, i32, i32, ptr, ptr, ptr, ...) @arkProcessError(ptr noundef nonnull %0, i32 noundef -22, i32 noundef 324, ptr noundef nonnull @__func__.MRIStepReInit, ptr noundef nonnull @.str, ptr noundef nonnull @.str.1) #14
  br label %mriStep_AccessARKODEStepMem.exit.thread

22:                                               ; preds = %18
  %23 = icmp eq ptr %4, null
  br i1 %23, label %24, label %25

24:                                               ; preds = %22
  tail call void (ptr, i32, i32, ptr, ptr, ptr, ...) @arkProcessError(ptr noundef nonnull %0, i32 noundef -22, i32 noundef 332, ptr noundef nonnull @__func__.MRIStepReInit, ptr noundef nonnull @.str, ptr noundef nonnull @.str.2) #14
  br label %mriStep_AccessARKODEStepMem.exit.thread

25:                                               ; preds = %22
  %not. = xor i1 %19, true
  %26 = zext i1 %not. to i32
  %27 = getelementptr inbounds nuw i8, ptr %11, i64 24
  store i32 %26, ptr %27, align 8, !tbaa !83
  %not.25 = xor i1 %20, true
  %28 = zext i1 %not.25 to i32
  %29 = getelementptr inbounds nuw i8, ptr %11, i64 28
  store i32 %28, ptr %29, align 4, !tbaa !84
  br i1 %20, label %42, label %30

30:                                               ; preds = %25
  %31 = getelementptr inbounds nuw i8, ptr %11, i64 168
  %32 = load ptr, ptr %31, align 8, !tbaa !87
  %.not27 = icmp eq ptr %32, null
  br i1 %.not27, label %33, label %42

33:                                               ; preds = %30
  %34 = load ptr, ptr %0, align 8, !tbaa !89
  %35 = tail call ptr @SUNNonlinSol_Newton(ptr noundef nonnull %4, ptr noundef %34) #14
  %.not28 = icmp eq ptr %35, null
  br i1 %.not28, label %36, label %37

36:                                               ; preds = %33
  tail call void (ptr, i32, i32, ptr, ptr, ptr, ...) @arkProcessError(ptr noundef nonnull %0, i32 noundef -20, i32 noundef 348, ptr noundef nonnull @__func__.MRIStepReInit, ptr noundef nonnull @.str, ptr noundef nonnull @.str.9) #14
  call void @ARKodeFree(ptr noundef nonnull %6) #14
  br label %mriStep_AccessARKODEStepMem.exit.thread

37:                                               ; preds = %33
  %38 = tail call i32 @ARKodeSetNonlinearSolver(ptr noundef nonnull %0, ptr noundef nonnull %35) #14
  %.not29 = icmp eq i32 %38, 0
  br i1 %.not29, label %40, label %39

39:                                               ; preds = %37
  tail call void (ptr, i32, i32, ptr, ptr, ptr, ...) @arkProcessError(ptr noundef nonnull %0, i32 noundef -20, i32 noundef 356, ptr noundef nonnull @__func__.MRIStepReInit, ptr noundef nonnull @.str, ptr noundef nonnull @.str.10) #14
  call void @ARKodeFree(ptr noundef nonnull %6) #14
  br label %mriStep_AccessARKODEStepMem.exit.thread

40:                                               ; preds = %37
  %41 = getelementptr inbounds nuw i8, ptr %11, i64 176
  store i32 1, ptr %41, align 8, !tbaa !88
  br label %42

42:                                               ; preds = %40, %30, %25
  %43 = tail call i32 @arkInit(ptr noundef nonnull %0, double noundef %3, ptr noundef nonnull %4, i32 noundef 0) #14
  %.not30 = icmp eq i32 %43, 0
  br i1 %.not30, label %45, label %44

44:                                               ; preds = %42
  tail call void (ptr, i32, i32, ptr, ptr, ptr, ...) @arkProcessError(ptr noundef nonnull %0, i32 noundef %43, i32 noundef 368, ptr noundef nonnull @__func__.MRIStepReInit, ptr noundef nonnull @.str, ptr noundef nonnull @.str.15) #14
  br label %mriStep_AccessARKODEStepMem.exit.thread

45:                                               ; preds = %42
  store ptr %1, ptr %11, align 8, !tbaa !72
  %46 = getelementptr inbounds nuw i8, ptr %11, i64 8
  store ptr %2, ptr %46, align 8, !tbaa !80
  %47 = getelementptr inbounds nuw i8, ptr %11, i64 60
  store i32 0, ptr %47, align 4, !tbaa !81
  %48 = getelementptr inbounds nuw i8, ptr %11, i64 64
  store i32 0, ptr %48, align 8, !tbaa !82
  %49 = getelementptr inbounds nuw i8, ptr %11, i64 408
  %50 = getelementptr inbounds nuw i8, ptr %11, i64 288
  store i64 0, ptr %50, align 8, !tbaa !91
  tail call void @llvm.memset.p0.i64(ptr noundef nonnull align 8 dereferenceable(48) %49, i8 0, i64 48, i1 false)
  br label %mriStep_AccessARKODEStepMem.exit.thread

mriStep_AccessARKODEStepMem.exit.thread:          ; preds = %13, %8, %45, %44, %39, %36, %24, %21, %17
  %.0 = phi i32 [ -23, %17 ], [ -22, %21 ], [ -22, %24 ], [ %43, %44 ], [ 0, %45 ], [ -20, %39 ], [ -20, %36 ], [ -21, %8 ], [ -21, %13 ]
  call void @llvm.lifetime.end.p0(i64 8, ptr nonnull %6) #14
  ret i32 %.0
}